target datalayout = "e-m:e-p270:32:32-p271:32:32-p272:64:64-i64:64-i128:128-f80:128-n8:16:32:64-S128"
target triple = "x86_64-pc-linux-gnu"

%"class.net::SpdyFramerVisitorAdapter" = type { %"class.net::SpdyFramerVisitorInterface", ptr, ptr }
%"class.net::SpdyFramerVisitorInterface" = type { ptr }

; Function Attrs: mustprogress uwtable
define void @_ZN3net24SpdyFramerVisitorAdapter10OnPriorityEjjib(ptr noundef nonnull align 8 dereferenceable(24) %0, i32 noundef %1, i32 noundef %2, i32 noundef %3, i1 noundef zeroext %4) unnamed_addr #2 align 2 {
  %6 = alloca ptr, align 8
  %7 = alloca i32, align 4
  %8 = alloca i32, align 4
  %9 = alloca i32, align 4
  %10 = alloca i8, align 1
  store ptr %0, ptr %6, align 8, !tbaa !22
  store i32 %1, ptr %7, align 4, !tbaa !30
  store i32 %2, ptr %8, align 4, !tbaa !30
  store i32 %3, ptr %9, align 4, !tbaa !30
  %11 = zext i1 %4 to i8
  store i8 %11, ptr %10, align 1, !tbaa !19
  %12 = load ptr, ptr %6, align 8
  %13 = getelementptr inbounds nuw %"class.net::SpdyFramerVisitorAdapter", ptr %12, i32 0, i32 1
  %14 = load ptr, ptr %13, align 8, !tbaa !26
  %15 = load i32, ptr %7, align 4, !tbaa !30
  %16 = load i32, ptr %8, align 4, !tbaa !30
  %17 = load i32, ptr %9, align 4, !tbaa !30
  %18 = load i8, ptr %10, align 1, !tbaa !19, !range !20, !noundef !21
  %19 = trunc i8 %18 to i1
  %20 = load ptr, ptr %14, align 8, !tbaa !8
  %21 = getelementptr inbounds ptr, ptr %20, i64 28
  %22 = load ptr, ptr %21, align 8
  call void %22(ptr noundef nonnull align 8 dereferenceable(8) %14, i32 noundef %15, i32 noundef %16, i32 noundef %17, i1 noundef zeroext %19)
  ret void
}