; Function Attrs: mustprogress uwtable
define void @_ZN3net24SpdyFramerVisitorAdapter10OnPriorityEjjib(ptr noundef nonnull readonly align 8 captures(none) dereferenceable(24) %0, i32 noundef %1, i32 noundef %2, i32 noundef %3, i1 noundef zeroext %4) unnamed_addr #3 align 2 {
  %6 = getelementptr inbounds nuw i8, ptr %0, i64 8
  %7 = load ptr, ptr %6, align 8, !tbaa !15
  %8 = load ptr, ptr %7, align 8, !tbaa !3
  %9 = getelementptr inbounds nuw i8, ptr %8, i64 224
  %10 = load ptr, ptr %9, align 8
  tail call void %10(ptr noundef nonnull align 8 dereferenceable(8) %7, i32 noundef %1, i32 noundef %2, i32 noundef %3, i1 noundef zeroext %4)
  ret void
}